; Function Attrs: nounwind uwtable
define void @Abc_NtkSetMvVarValues(ptr noundef readonly captures(none) %0, i32 noundef %1) local_unnamed_addr #0 {
  %3 = icmp eq i32 %1, 2
  br i1 %3, label %Abc_ObjMvVar.exit.thread16, label %4

4:                                                ; preds = %2
  %5 = load ptr, ptr %0, align 8, !tbaa !34
  %6 = getelementptr i8, ptr %5, i64 432
  %.val.i = load ptr, ptr %6, align 8, !tbaa !31
  %7 = getelementptr i8, ptr %.val.i, i64 8
  %.val.val.i = load ptr, ptr %7, align 8, !tbaa !32
  %8 = getelementptr i8, ptr %.val.val.i, i64 96
  %.val.val.val.i = load ptr, ptr %8, align 8, !tbaa !33
  %.not.i = icmp eq ptr %.val.val.val.i, null
  br i1 %.not.i, label %Abc_ObjMvVar.exit.thread, label %9

9:                                                ; preds = %4
  %10 = getelementptr inbounds nuw i8, ptr %0, i64 16
  %11 = load i32, ptr %10, align 8, !tbaa !37
  %12 = load i32, ptr %.val.val.val.i, align 8, !tbaa !29
  %.not.i.i = icmp slt i32 %11, %12
  br i1 %.not.i.i, label %Vec_AttGrow.exit.i.i, label %13

13:                                               ; preds = %9
  %14 = shl nsw i32 %12, 1
  %15 = icmp sgt i32 %14, %11
  %16 = add nsw i32 %11, 10
  %17 = select i1 %15, i32 %14, i32 %16
  %.not.i.i.i = icmp slt i32 %12, %17
  br i1 %.not.i.i.i, label %18, label %Vec_AttGrow.exit.i.i

18:                                               ; preds = %13
  %19 = getelementptr inbounds nuw i8, ptr %.val.val.val.i, i64 8
  %20 = load ptr, ptr %19, align 8, !tbaa !30
  %.not13.i.i.i = icmp eq ptr %20, null
  %21 = sext i32 %17 to i64
  %22 = shl nsw i64 %21, 3
  br i1 %.not13.i.i.i, label %25, label %23

23:                                               ; preds = %18
  %24 = tail call ptr @realloc(ptr noundef nonnull %20, i64 noundef %22) #16
  %.pre.i.i.i = load i32, ptr %.val.val.val.i, align 8, !tbaa !29
  br label %27

25:                                               ; preds = %18
  %26 = tail call noalias ptr @malloc(i64 noundef %22) #17
  br label %27

27:                                               ; preds = %25, %23
  %28 = phi i32 [ %.pre.i.i.i, %23 ], [ %12, %25 ]
  %29 = phi ptr [ %24, %23 ], [ %26, %25 ]
  store ptr %29, ptr %19, align 8, !tbaa !30
  %30 = sext i32 %28 to i64
  %31 = getelementptr inbounds ptr, ptr %29, i64 %30
  %32 = sub nsw i32 %17, %28
  %33 = sext i32 %32 to i64
  %34 = shl nsw i64 %33, 3
  tail call void @llvm.memset.p0.i64(ptr align 8 %31, i8 0, i64 %34, i1 false)
  store i32 %17, ptr %.val.val.val.i, align 8, !tbaa !29
  br label %Vec_AttGrow.exit.i.i

Vec_AttGrow.exit.i.i:                             ; preds = %27, %13, %9
  %35 = getelementptr inbounds nuw i8, ptr %.val.val.val.i, i64 8
  %36 = load ptr, ptr %35, align 8, !tbaa !30
  %37 = sext i32 %11 to i64
  %38 = getelementptr inbounds ptr, ptr %36, i64 %37
  %39 = load ptr, ptr %38, align 8, !tbaa !33
  %40 = icmp eq ptr %39, null
  br i1 %40, label %41, label %Abc_ObjMvVar.exit.thread16

41:                                               ; preds = %Vec_AttGrow.exit.i.i
  %42 = getelementptr inbounds nuw i8, ptr %.val.val.val.i, i64 32
  %43 = load ptr, ptr %42, align 8, !tbaa !38
  %.not18.i.i = icmp eq ptr %43, null
  br i1 %.not18.i.i, label %Abc_ObjMvVar.exit.thread, label %Abc_ObjMvVar.exit

Abc_ObjMvVar.exit:                                ; preds = %41
  %44 = getelementptr inbounds nuw i8, ptr %.val.val.val.i, i64 16
  %45 = load ptr, ptr %44, align 8, !tbaa !26
  %46 = tail call ptr %43(ptr noundef %45) #15
  %47 = load ptr, ptr %35, align 8, !tbaa !30
  %48 = getelementptr inbounds ptr, ptr %47, i64 %37
  store ptr %46, ptr %48, align 8, !tbaa !33
  %.pre.i.i = load ptr, ptr %35, align 8, !tbaa !30
  %.phi.trans.insert.i.i = getelementptr inbounds ptr, ptr %.pre.i.i, i64 %37
  %.pre19.i.i = load ptr, ptr %.phi.trans.insert.i.i, align 8, !tbaa !33
  %.not = icmp eq ptr %.pre19.i.i, null
  br i1 %.not, label %Abc_ObjMvVar.exit.thread, label %Abc_ObjMvVar.exit.thread16

Abc_ObjMvVar.exit.thread:                         ; preds = %41, %4, %Abc_ObjMvVar.exit
  %49 = load ptr, ptr %0, align 8, !tbaa !34
  %50 = getelementptr i8, ptr %49, i64 432
  %.val = load ptr, ptr %50, align 8, !tbaa !31
  %51 = getelementptr i8, ptr %.val, i64 8
  %.val.val = load ptr, ptr %51, align 8, !tbaa !32
  %52 = getelementptr i8, ptr %.val.val, i64 96
  %.val.val.val = load ptr, ptr %52, align 8, !tbaa !33
  %.not.i10 = icmp eq ptr %.val.val.val, null
  br i1 %.not.i10, label %Abc_NtkMvVarMan.exit, label %53

53:                                               ; preds = %Abc_ObjMvVar.exit.thread
  %54 = getelementptr i8, ptr %.val.val.val, i64 16
  %.val3.i = load ptr, ptr %54, align 8, !tbaa !26
  br label %Abc_NtkMvVarMan.exit

Abc_NtkMvVarMan.exit:                             ; preds = %Abc_ObjMvVar.exit.thread, %53
  %55 = phi ptr [ %.val3.i, %53 ], [ null, %Abc_ObjMvVar.exit.thread ]
  %56 = tail call ptr @Mem_FlexEntryFetch(ptr noundef %55, i32 noundef 16) #15
  store i32 %1, ptr %56, align 8, !tbaa !39
  %57 = getelementptr inbounds nuw i8, ptr %56, i64 8
  store ptr null, ptr %57, align 8, !tbaa !42
  %.val8 = load ptr, ptr %0, align 8, !tbaa !34
  %58 = getelementptr i8, ptr %0, i64 16
  %.val9 = load i32, ptr %58, align 8, !tbaa !37
  %59 = getelementptr i8, ptr %.val8, i64 432
  %.val8.val = load ptr, ptr %59, align 8, !tbaa !31
  %60 = getelementptr i8, ptr %.val8.val, i64 8
  %.val8.val.val = load ptr, ptr %60, align 8, !tbaa !32
  %61 = getelementptr i8, ptr %.val8.val.val, i64 96
  %.val8.val.val.val = load ptr, ptr %61, align 8, !tbaa !33
  %62 = load i32, ptr %.val8.val.val.val, align 8, !tbaa !29
  %.not.i.i11 = icmp slt i32 %.val9, %62
  br i1 %.not.i.i11, label %Abc_ObjSetMvVar.exit, label %63

63:                                               ; preds = %Abc_NtkMvVarMan.exit
  %64 = shl nsw i32 %62, 1
  %65 = icmp sgt i32 %64, %.val9
  %66 = add nsw i32 %.val9, 10
  %67 = select i1 %65, i32 %64, i32 %66
  %.not.i.i.i12 = icmp slt i32 %62, %67
  br i1 %.not.i.i.i12, label %68, label %Abc_ObjSetMvVar.exit

68:                                               ; preds = %63
  %69 = getelementptr inbounds nuw i8, ptr %.val8.val.val.val, i64 8
  %70 = load ptr, ptr %69, align 8, !tbaa !30
  %.not13.i.i.i13 = icmp eq ptr %70, null
  %71 = sext i32 %67 to i64
  %72 = shl nsw i64 %71, 3
  br i1 %.not13.i.i.i13, label %75, label %73

73:                                               ; preds = %68
  %74 = tail call ptr @realloc(ptr noundef nonnull %70, i64 noundef %72) #16
  %.pre.i.i.i14 = load i32, ptr %.val8.val.val.val, align 8, !tbaa !29
  br label %77

75:                                               ; preds = %68
  %76 = tail call noalias ptr @malloc(i64 noundef %72) #17
  br label %77

77:                                               ; preds = %75, %73
  %78 = phi i32 [ %.pre.i.i.i14, %73 ], [ %62, %75 ]
  %79 = phi ptr [ %74, %73 ], [ %76, %75 ]
  store ptr %79, ptr %69, align 8, !tbaa !30
  %80 = sext i32 %78 to i64
  %81 = getelementptr inbounds ptr, ptr %79, i64 %80
  %82 = sub nsw i32 %67, %78
  %83 = sext i32 %82 to i64
  %84 = shl nsw i64 %83, 3
  tail call void @llvm.memset.p0.i64(ptr align 8 %81, i8 0, i64 %84, i1 false)
  store i32 %67, ptr %.val8.val.val.val, align 8, !tbaa !29
  br label %Abc_ObjSetMvVar.exit

Abc_ObjSetMvVar.exit:                             ; preds = %Abc_NtkMvVarMan.exit, %63, %77
  %85 = getelementptr inbounds nuw i8, ptr %.val8.val.val.val, i64 8
  %86 = load ptr, ptr %85, align 8, !tbaa !30
  %87 = sext i32 %.val9 to i64
  %88 = getelementptr inbounds ptr, ptr %86, i64 %87
  store ptr %56, ptr %88, align 8, !tbaa !33
  br label %Abc_ObjMvVar.exit.thread16

Abc_ObjMvVar.exit.thread16:                       ; preds = %Vec_AttGrow.exit.i.i, %Abc_ObjMvVar.exit, %2, %Abc_ObjSetMvVar.exit
  ret void
}